target datalayout = "e-m:e-p270:32:32-p271:32:32-p272:64:64-i64:64-i128:128-f80:128-n8:16:32:64-S128"
target triple = "x86_64-pc-linux-gnu"

%struct.exr_attr_string_vector_t = type { i32, i32, ptr }
%struct.exr_attr_string_t = type { i32, i32, ptr }
%struct._priv_exr_context_t = type { i8, i8, i8, i8, i8, i8, i8, i8, %struct.exr_attr_string_t, %struct.exr_attr_string_t, ptr, ptr, ptr, ptr, ptr, ptr, ptr, ptr, i32, i32, i32, i32, i32, float, ptr, ptr, ptr, i64, ptr, ptr, i64, i32, i32, i32, i32, %struct._priv_exr_part_t, ptr, ptr, %struct.exr_attribute_list, %union.pthread_mutex_t, i8, i8, [2 x i8], i32 }
%struct._priv_exr_part_t = type { i32, i32, %struct.exr_attribute_list, ptr, ptr, ptr, ptr, ptr, ptr, ptr, ptr, ptr, ptr, ptr, ptr, ptr, ptr, %struct.exr_attr_box2i_t, %struct.exr_attr_box2i_t, i32, i32, i32, float, i32, i32, ptr, ptr, ptr, ptr, i64, i16, i16, i32, i64, i64 }
%struct.exr_attr_box2i_t = type { %struct.exr_attr_v2i_t, %struct.exr_attr_v2i_t }
%struct.exr_attr_v2i_t = type { i32, i32 }
%struct.exr_attribute_list = type { i32, i32, ptr, ptr }
%union.pthread_mutex_t = type { %struct.__pthread_mutex_s }
%struct.__pthread_mutex_s = type { i32, i32, i32, i32, i32, i16, i16, %struct.__pthread_internal_list }
%struct.__pthread_internal_list = type { ptr, ptr }

@.str = private unnamed_addr constant [55 x i8] c"Invalid reference to string vector object to assign to\00", align 1

; Function Attrs: nounwind uwtable
define hidden i32 @exr_attr_string_vector_add_entry_with_length(ptr noundef %0, ptr noundef %1, ptr noundef %2, i32 noundef %3) #0 {
  %5 = alloca i32, align 4
  %6 = alloca ptr, align 8
  %7 = alloca ptr, align 8
  %8 = alloca ptr, align 8
  %9 = alloca i32, align 4
  %10 = alloca i32, align 4
  %11 = alloca i32, align 4
  %12 = alloca ptr, align 8
  %13 = alloca i32, align 4
  %14 = alloca i64, align 8
  %15 = alloca i32, align 4
  %16 = alloca i32, align 4
  store ptr %0, ptr %6, align 8, !tbaa !3
  store ptr %1, ptr %7, align 8, !tbaa !8
  store ptr %2, ptr %8, align 8, !tbaa !36
  store i32 %3, ptr %9, align 4, !tbaa !9
  call void @llvm.lifetime.start.p0(i64 4, ptr %10) #6
  call void @llvm.lifetime.start.p0(i64 4, ptr %11) #6
  call void @llvm.lifetime.start.p0(i64 8, ptr %12) #6
  %17 = load ptr, ptr %6, align 8, !tbaa !3
  %18 = icmp ne ptr %17, null
  br i1 %18, label %20, label %19

19:                                               ; preds = %4
  store i32 2, ptr %5, align 4
  store i32 1, ptr %13, align 4
  br label %149

20:                                               ; preds = %4
  %21 = load ptr, ptr %7, align 8, !tbaa !8
  %22 = icmp ne ptr %21, null
  br i1 %22, label %29, label %23

23:                                               ; preds = %20
  %24 = load ptr, ptr %6, align 8, !tbaa !3
  %25 = getelementptr inbounds nuw %struct._priv_exr_context_t, ptr %24, i32 0, i32 13
  %26 = load ptr, ptr %25, align 8, !tbaa !13
  %27 = load ptr, ptr %6, align 8, !tbaa !3
  %28 = call i32 %26(ptr noundef %27, i32 noundef 3, ptr noundef @.str)
  store i32 %28, ptr %5, align 4
  store i32 1, ptr %13, align 4
  br label %149

29:                                               ; preds = %20
  %30 = load ptr, ptr %7, align 8, !tbaa !8
  %31 = getelementptr inbounds nuw %struct.exr_attr_string_vector_t, ptr %30, i32 0, i32 0
  %32 = load i32, ptr %31, align 8, !tbaa !33
  %33 = add nsw i32 %32, 1
  store i32 %33, ptr %10, align 4, !tbaa !9
  %34 = load i32, ptr %10, align 4, !tbaa !9
  %35 = load ptr, ptr %7, align 8, !tbaa !8
  %36 = getelementptr inbounds nuw %struct.exr_attr_string_vector_t, ptr %35, i32 0, i32 1
  %37 = load i32, ptr %36, align 4, !tbaa !34
  %38 = icmp sgt i32 %34, %37
  br i1 %38, label %39, label %124

39:                                               ; preds = %29
  call void @llvm.lifetime.start.p0(i64 8, ptr %14) #6
  call void @llvm.lifetime.start.p0(i64 4, ptr %15) #6
  %40 = load ptr, ptr %7, align 8, !tbaa !8
  %41 = getelementptr inbounds nuw %struct.exr_attr_string_vector_t, ptr %40, i32 0, i32 1
  %42 = load i32, ptr %41, align 4, !tbaa !34
  %43 = mul nsw i32 %42, 2
  store i32 %43, ptr %15, align 4, !tbaa !9
  %44 = load ptr, ptr %7, align 8, !tbaa !8
  %45 = getelementptr inbounds nuw %struct.exr_attr_string_vector_t, ptr %44, i32 0, i32 1
  %46 = load i32, ptr %45, align 4, !tbaa !34
  %47 = icmp sge i32 %46, 134217727
  br i1 %47, label %48, label %54

48:                                               ; preds = %39
  %49 = load ptr, ptr %6, align 8, !tbaa !3
  %50 = getelementptr inbounds nuw %struct._priv_exr_context_t, ptr %49, i32 0, i32 12
  %51 = load ptr, ptr %50, align 8, !tbaa !32
  %52 = load ptr, ptr %6, align 8, !tbaa !3
  %53 = call i32 %51(ptr noundef %52, i32 noundef 1)
  store i32 %53, ptr %5, align 4
  store i32 1, ptr %13, align 4
  br label %121

54:                                               ; preds = %39
  %55 = load i32, ptr %10, align 4, !tbaa !9
  %56 = load i32, ptr %15, align 4, !tbaa !9
  %57 = icmp sgt i32 %55, %56
  br i1 %57, label %58, label %61

58:                                               ; preds = %54
  %59 = load i32, ptr %10, align 4, !tbaa !9
  %60 = add nsw i32 %59, 1
  store i32 %60, ptr %15, align 4, !tbaa !9
  br label %61

61:                                               ; preds = %58, %54
  %62 = load i32, ptr %15, align 4, !tbaa !9
  %63 = sext i32 %62 to i64
  %64 = mul i64 %63, 16
  store i64 %64, ptr %14, align 8, !tbaa !11
  %65 = load ptr, ptr %6, align 8, !tbaa !3
  %66 = getelementptr inbounds nuw %struct._priv_exr_context_t, ptr %65, i32 0, i32 16
  %67 = load ptr, ptr %66, align 8, !tbaa !29
  %68 = load i64, ptr %14, align 8, !tbaa !11
  %69 = call ptr %67(i64 noundef %68)
  store ptr %69, ptr %12, align 8, !tbaa !8
  %70 = load ptr, ptr %12, align 8, !tbaa !8
  %71 = icmp eq ptr %70, null
  br i1 %71, label %72, label %78

72:                                               ; preds = %61
  %73 = load ptr, ptr %6, align 8, !tbaa !3
  %74 = getelementptr inbounds nuw %struct._priv_exr_context_t, ptr %73, i32 0, i32 12
  %75 = load ptr, ptr %74, align 8, !tbaa !32
  %76 = load ptr, ptr %6, align 8, !tbaa !3
  %77 = call i32 %75(ptr noundef %76, i32 noundef 1)
  store i32 %77, ptr %5, align 4
  store i32 1, ptr %13, align 4
  br label %121

78:                                               ; preds = %61
  call void @llvm.lifetime.start.p0(i64 4, ptr %16) #6
  store i32 0, ptr %16, align 4, !tbaa !9
  br label %79

79:                                               ; preds = %97, %78
  %80 = load i32, ptr %16, align 4, !tbaa !9
  %81 = load ptr, ptr %7, align 8, !tbaa !8
  %82 = getelementptr inbounds nuw %struct.exr_attr_string_vector_t, ptr %81, i32 0, i32 0
  %83 = load i32, ptr %82, align 8, !tbaa !33
  %84 = icmp slt i32 %80, %83
  br i1 %84, label %86, label %85

85:                                               ; preds = %79
  store i32 2, ptr %13, align 4
  call void @llvm.lifetime.end.p0(i64 4, ptr %16) #6
  br label %100

86:                                               ; preds = %79
  %87 = load ptr, ptr %12, align 8, !tbaa !8
  %88 = load i32, ptr %16, align 4, !tbaa !9
  %89 = sext i32 %88 to i64
  %90 = getelementptr inbounds %struct.exr_attr_string_t, ptr %87, i64 %89
  %91 = load ptr, ptr %7, align 8, !tbaa !8
  %92 = getelementptr inbounds nuw %struct.exr_attr_string_vector_t, ptr %91, i32 0, i32 2
  %93 = load ptr, ptr %92, align 8, !tbaa !30
  %94 = load i32, ptr %16, align 4, !tbaa !9
  %95 = sext i32 %94 to i64
  %96 = getelementptr inbounds %struct.exr_attr_string_t, ptr %93, i64 %95
  call void @llvm.memcpy.p0.p0.i64(ptr align 8 %90, ptr align 8 %96, i64 16, i1 false), !tbaa.struct !35
  br label %97

97:                                               ; preds = %86
  %98 = load i32, ptr %16, align 4, !tbaa !9
  %99 = add nsw i32 %98, 1
  store i32 %99, ptr %16, align 4, !tbaa !9
  br label %79, !llvm.loop !44

100:                                              ; preds = %85
  %101 = load ptr, ptr %7, align 8, !tbaa !8
  %102 = getelementptr inbounds nuw %struct.exr_attr_string_vector_t, ptr %101, i32 0, i32 1
  %103 = load i32, ptr %102, align 4, !tbaa !34
  %104 = icmp sgt i32 %103, 0
  br i1 %104, label %105, label %114

105:                                              ; preds = %100
  %106 = load ptr, ptr %6, align 8, !tbaa !3
  %107 = getelementptr inbounds nuw %struct._priv_exr_context_t, ptr %106, i32 0, i32 17
  %108 = load ptr, ptr %107, align 8, !tbaa !40
  %109 = load ptr, ptr %7, align 8, !tbaa !8
  %110 = getelementptr inbounds nuw %struct.exr_attr_string_vector_t, ptr %109, i32 0, i32 2
  %111 = load ptr, ptr %110, align 8, !tbaa !30
  %112 = ptrtoint ptr %111 to i64
  %113 = inttoptr i64 %112 to ptr
  call void %108(ptr noundef %113)
  br label %114

114:                                              ; preds = %105, %100
  %115 = load ptr, ptr %12, align 8, !tbaa !8
  %116 = load ptr, ptr %7, align 8, !tbaa !8
  %117 = getelementptr inbounds nuw %struct.exr_attr_string_vector_t, ptr %116, i32 0, i32 2
  store ptr %115, ptr %117, align 8, !tbaa !30
  %118 = load i32, ptr %15, align 4, !tbaa !9
  %119 = load ptr, ptr %7, align 8, !tbaa !8
  %120 = getelementptr inbounds nuw %struct.exr_attr_string_vector_t, ptr %119, i32 0, i32 1
  store i32 %118, ptr %120, align 4, !tbaa !34
  store i32 0, ptr %13, align 4
  br label %121

121:                                              ; preds = %114, %72, %48
  call void @llvm.lifetime.end.p0(i64 4, ptr %15) #6
  call void @llvm.lifetime.end.p0(i64 8, ptr %14) #6
  %122 = load i32, ptr %13, align 4
  switch i32 %122, label %149 [
    i32 0, label %123
  ]

123:                                              ; preds = %121
  br label %130

124:                                              ; preds = %29
  %125 = load ptr, ptr %7, align 8, !tbaa !8
  %126 = getelementptr inbounds nuw %struct.exr_attr_string_vector_t, ptr %125, i32 0, i32 2
  %127 = load ptr, ptr %126, align 8, !tbaa !30
  %128 = ptrtoint ptr %127 to i64
  %129 = inttoptr i64 %128 to ptr
  store ptr %129, ptr %12, align 8, !tbaa !8
  br label %130

130:                                              ; preds = %124, %123
  %131 = load ptr, ptr %6, align 8, !tbaa !3
  %132 = load ptr, ptr %12, align 8, !tbaa !8
  %133 = load ptr, ptr %7, align 8, !tbaa !8
  %134 = getelementptr inbounds nuw %struct.exr_attr_string_vector_t, ptr %133, i32 0, i32 0
  %135 = load i32, ptr %134, align 8, !tbaa !33
  %136 = sext i32 %135 to i64
  %137 = getelementptr inbounds %struct.exr_attr_string_t, ptr %132, i64 %136
  %138 = load ptr, ptr %8, align 8, !tbaa !36
  %139 = load i32, ptr %9, align 4, !tbaa !9
  %140 = call i32 @exr_attr_string_create_with_length(ptr noundef %131, ptr noundef %137, ptr noundef %138, i32 noundef %139)
  store i32 %140, ptr %11, align 4, !tbaa !9
  %141 = load i32, ptr %11, align 4, !tbaa !9
  %142 = icmp eq i32 %141, 0
  br i1 %142, label %143, label %147

143:                                              ; preds = %130
  %144 = load i32, ptr %10, align 4, !tbaa !9
  %145 = load ptr, ptr %7, align 8, !tbaa !8
  %146 = getelementptr inbounds nuw %struct.exr_attr_string_vector_t, ptr %145, i32 0, i32 0
  store i32 %144, ptr %146, align 8, !tbaa !33
  br label %147

147:                                              ; preds = %143, %130
  %148 = load i32, ptr %11, align 4, !tbaa !9
  store i32 %148, ptr %5, align 4
  store i32 1, ptr %13, align 4
  br label %149

149:                                              ; preds = %147, %121, %23, %19
  call void @llvm.lifetime.end.p0(i64 8, ptr %12) #6
  call void @llvm.lifetime.end.p0(i64 4, ptr %11) #6
  call void @llvm.lifetime.end.p0(i64 4, ptr %10) #6
  %150 = load i32, ptr %5, align 4
  ret i32 %150
}