; Function Attrs: nounwind uwtable
define hidden i32 @exr_attr_string_vector_add_entry_with_length(ptr noundef %0, ptr noundef %1, ptr noundef %2, i32 noundef %3) local_unnamed_addr #0 {
  %.not = icmp eq ptr %0, null
  br i1 %.not, label %.thread, label %5

5:                                                ; preds = %4
  %.not57 = icmp eq ptr %1, null
  br i1 %.not57, label %6, label %10

6:                                                ; preds = %5
  %7 = getelementptr inbounds nuw i8, ptr %0, i64 64
  %8 = load ptr, ptr %7, align 8, !tbaa !3
  %9 = tail call i32 %8(ptr noundef nonnull %0, i32 noundef 3, ptr noundef nonnull @.str) #5
  br label %.thread

10:                                               ; preds = %5
  %11 = load i32, ptr %1, align 8, !tbaa !27
  %12 = add nsw i32 %11, 1
  %13 = getelementptr inbounds nuw i8, ptr %1, i64 4
  %14 = load i32, ptr %13, align 4, !tbaa !28
  %.not58 = icmp slt i32 %11, %14
  br i1 %.not58, label %53, label %15

15:                                               ; preds = %10
  %16 = icmp sgt i32 %14, 134217726
  br i1 %16, label %17, label %21

17:                                               ; preds = %15
  %18 = getelementptr inbounds nuw i8, ptr %0, i64 56
  %19 = load ptr, ptr %18, align 8, !tbaa !26
  %20 = tail call i32 %19(ptr noundef nonnull %0, i32 noundef 1) #5
  br label %.thread

21:                                               ; preds = %15
  %22 = shl nsw i32 %14, 1
  %.not59 = icmp slt i32 %11, %22
  %23 = add nsw i32 %11, 2
  %spec.select = select i1 %.not59, i32 %22, i32 %23
  %24 = sext i32 %spec.select to i64
  %25 = shl nsw i64 %24, 4
  %26 = getelementptr inbounds nuw i8, ptr %0, i64 88
  %27 = load ptr, ptr %26, align 8, !tbaa !23
  %28 = tail call ptr %27(i64 noundef %25) #5
  %29 = icmp eq ptr %28, null
  br i1 %29, label %33, label %.preheader

.preheader:                                       ; preds = %21
  %30 = load i32, ptr %1, align 8, !tbaa !27
  %31 = icmp sgt i32 %30, 0
  br i1 %31, label %.lr.ph, label %._crit_edge

.lr.ph:                                           ; preds = %.preheader
  %32 = getelementptr inbounds nuw i8, ptr %1, i64 8
  br label %39

33:                                               ; preds = %21
  %34 = getelementptr inbounds nuw i8, ptr %0, i64 56
  %35 = load ptr, ptr %34, align 8, !tbaa !26
  %36 = tail call i32 %35(ptr noundef nonnull %0, i32 noundef 1) #5
  br label %.thread

._crit_edge:                                      ; preds = %39, %.preheader
  %.pre66 = phi i32 [ %30, %.preheader ], [ %43, %39 ]
  %37 = load i32, ptr %13, align 4, !tbaa !28
  %38 = icmp sgt i32 %37, 0
  br i1 %38, label %46, label %51

39:                                               ; preds = %.lr.ph, %39
  %indvars.iv = phi i64 [ 0, %.lr.ph ], [ %indvars.iv.next, %39 ]
  %40 = getelementptr inbounds nuw %struct.exr_attr_string_t, ptr %28, i64 %indvars.iv
  %41 = load ptr, ptr %32, align 8, !tbaa !24
  %42 = getelementptr inbounds nuw %struct.exr_attr_string_t, ptr %41, i64 %indvars.iv
  tail call void @llvm.memcpy.p0.p0.i64(ptr noundef nonnull align 8 dereferenceable(16) %40, ptr noundef nonnull align 8 dereferenceable(16) %42, i64 16, i1 false), !tbaa.struct !36
  %indvars.iv.next = add nuw nsw i64 %indvars.iv, 1
  %43 = load i32, ptr %1, align 8, !tbaa !27
  %44 = sext i32 %43 to i64
  %45 = icmp slt i64 %indvars.iv.next, %44
  br i1 %45, label %39, label %._crit_edge, !llvm.loop !39

46:                                               ; preds = %._crit_edge
  %47 = getelementptr inbounds nuw i8, ptr %0, i64 96
  %48 = load ptr, ptr %47, align 8, !tbaa !32
  %49 = getelementptr inbounds nuw i8, ptr %1, i64 8
  %50 = load ptr, ptr %49, align 8, !tbaa !24
  tail call void %48(ptr noundef %50) #5
  %.pre.pre = load i32, ptr %1, align 8, !tbaa !27
  br label %51

51:                                               ; preds = %._crit_edge, %46
  %.pre = phi i32 [ %.pre66, %._crit_edge ], [ %.pre.pre, %46 ]
  %52 = getelementptr inbounds nuw i8, ptr %1, i64 8
  store ptr %28, ptr %52, align 8, !tbaa !24
  store i32 %spec.select, ptr %13, align 4, !tbaa !28
  br label %56

53:                                               ; preds = %10
  %54 = getelementptr inbounds nuw i8, ptr %1, i64 8
  %55 = load ptr, ptr %54, align 8, !tbaa !24
  br label %56

56:                                               ; preds = %51, %53
  %57 = phi i32 [ %.pre, %51 ], [ %11, %53 ]
  %.149 = phi ptr [ %28, %51 ], [ %55, %53 ]
  %58 = sext i32 %57 to i64
  %59 = getelementptr inbounds %struct.exr_attr_string_t, ptr %.149, i64 %58
  %60 = tail call i32 @exr_attr_string_create_with_length(ptr noundef nonnull %0, ptr noundef %59, ptr noundef %2, i32 noundef %3) #5
  %61 = icmp eq i32 %60, 0
  br i1 %61, label %62, label %.thread

62:                                               ; preds = %56
  store i32 %12, ptr %1, align 8, !tbaa !27
  br label %.thread

.thread:                                          ; preds = %33, %17, %56, %62, %4, %6
  %.046 = phi i32 [ %9, %6 ], [ 2, %4 ], [ 0, %62 ], [ %60, %56 ], [ %36, %33 ], [ %20, %17 ]
  ret i32 %.046
}